target datalayout = "e-m:e-p270:32:32-p271:32:32-p272:64:64-i64:64-i128:128-f80:128-n8:16:32:64-S128"
target triple = "x86_64-pc-linux-gnu"

%struct.jpeg_decompress_struct = type { ptr, ptr, ptr, ptr, i32, i32, ptr, i32, i32, i32, i32, i32, i32, i32, double, i32, i32, i32, i32, i32, i32, i32, i32, i32, i32, i32, i32, i32, i32, i32, i32, i32, i32, ptr, i32, i32, i32, i32, i32, ptr, [4 x ptr], [4 x ptr], [4 x ptr], i32, ptr, i32, i32, [16 x i8], [16 x i8], [16 x i8], i32, i32, i8, i8, i8, i16, i16, i32, i8, i32, ptr, i32, i32, i32, i32, ptr, i32, [4 x ptr], i32, i32, i32, [10 x i32], i32, i32, i32, i32, i32, ptr, ptr, ptr, ptr, ptr, ptr, ptr, ptr, ptr, ptr, ptr }
%struct.my_color_deconverter = type { %struct.jpeg_color_deconverter, ptr, ptr, ptr, ptr, ptr }
%struct.jpeg_color_deconverter = type { ptr, ptr, ptr, ptr }

; Function Attrs: nounwind uwtable
define internal void @rgb_gray_convert(ptr noundef %0, ptr noundef %1, i32 noundef %2, ptr noundef %3, i32 noundef %4) #0 {
  %6 = alloca ptr, align 8
  %7 = alloca ptr, align 8
  %8 = alloca i32, align 4
  %9 = alloca ptr, align 8
  %10 = alloca i32, align 4
  %11 = alloca ptr, align 8
  %12 = alloca i32, align 4
  %13 = alloca i32, align 4
  %14 = alloca i32, align 4
  %15 = alloca ptr, align 8
  %16 = alloca ptr, align 8
  %17 = alloca ptr, align 8
  %18 = alloca ptr, align 8
  %19 = alloca ptr, align 8
  %20 = alloca i32, align 4
  %21 = alloca i32, align 4
  store ptr %0, ptr %6, align 8
  store ptr %1, ptr %7, align 8
  store i32 %2, ptr %8, align 4
  store ptr %3, ptr %9, align 8
  store i32 %4, ptr %10, align 4
  %22 = load ptr, ptr %6, align 8
  %23 = getelementptr inbounds %struct.jpeg_decompress_struct, ptr %22, i32 0, i32 86
  %24 = load ptr, ptr %23, align 8
  store ptr %24, ptr %11, align 8
  %25 = load ptr, ptr %11, align 8
  %26 = getelementptr inbounds %struct.my_color_deconverter, ptr %25, i32 0, i32 5
  %27 = load ptr, ptr %26, align 8
  store ptr %27, ptr %15, align 8
  %28 = load ptr, ptr %6, align 8
  %29 = getelementptr inbounds %struct.jpeg_decompress_struct, ptr %28, i32 0, i32 27
  %30 = load i32, ptr %29, align 8
  store i32 %30, ptr %21, align 4
  br label %31

31:                                               ; preds = %114, %5
  %32 = load i32, ptr %10, align 4
  %33 = add nsw i32 %32, -1
  store i32 %33, ptr %10, align 4
  %34 = icmp sge i32 %33, 0
  br i1 %34, label %35, label %115

35:                                               ; preds = %31
  %36 = load ptr, ptr %7, align 8
  %37 = getelementptr inbounds ptr, ptr %36, i64 0
  %38 = load ptr, ptr %37, align 8
  %39 = load i32, ptr %8, align 4
  %40 = zext i32 %39 to i64
  %41 = getelementptr inbounds ptr, ptr %38, i64 %40
  %42 = load ptr, ptr %41, align 8
  store ptr %42, ptr %17, align 8
  %43 = load ptr, ptr %7, align 8
  %44 = getelementptr inbounds ptr, ptr %43, i64 1
  %45 = load ptr, ptr %44, align 8
  %46 = load i32, ptr %8, align 4
  %47 = zext i32 %46 to i64
  %48 = getelementptr inbounds ptr, ptr %45, i64 %47
  %49 = load ptr, ptr %48, align 8
  store ptr %49, ptr %18, align 8
  %50 = load ptr, ptr %7, align 8
  %51 = getelementptr inbounds ptr, ptr %50, i64 2
  %52 = load ptr, ptr %51, align 8
  %53 = load i32, ptr %8, align 4
  %54 = zext i32 %53 to i64
  %55 = getelementptr inbounds ptr, ptr %52, i64 %54
  %56 = load ptr, ptr %55, align 8
  store ptr %56, ptr %19, align 8
  %57 = load i32, ptr %8, align 4
  %58 = add i32 %57, 1
  store i32 %58, ptr %8, align 4
  %59 = load ptr, ptr %9, align 8
  %60 = getelementptr inbounds ptr, ptr %59, i32 1
  store ptr %60, ptr %9, align 8
  %61 = load ptr, ptr %59, align 8
  store ptr %61, ptr %16, align 8
  store i32 0, ptr %20, align 4
  br label %62

62:                                               ; preds = %111, %35
  %63 = load i32, ptr %20, align 4
  %64 = load i32, ptr %21, align 4
  %65 = icmp ult i32 %63, %64
  br i1 %65, label %66, label %114

66:                                               ; preds = %62
  %67 = load ptr, ptr %17, align 8
  %68 = load i32, ptr %20, align 4
  %69 = zext i32 %68 to i64
  %70 = getelementptr inbounds i8, ptr %67, i64 %69
  %71 = load i8, ptr %70, align 1
  %72 = zext i8 %71 to i32
  store i32 %72, ptr %12, align 4
  %73 = load ptr, ptr %18, align 8
  %74 = load i32, ptr %20, align 4
  %75 = zext i32 %74 to i64
  %76 = getelementptr inbounds i8, ptr %73, i64 %75
  %77 = load i8, ptr %76, align 1
  %78 = zext i8 %77 to i32
  store i32 %78, ptr %13, align 4
  %79 = load ptr, ptr %19, align 8
  %80 = load i32, ptr %20, align 4
  %81 = zext i32 %80 to i64
  %82 = getelementptr inbounds i8, ptr %79, i64 %81
  %83 = load i8, ptr %82, align 1
  %84 = zext i8 %83 to i32
  store i32 %84, ptr %14, align 4
  %85 = load ptr, ptr %15, align 8
  %86 = load i32, ptr %12, align 4
  %87 = add nsw i32 %86, 0
  %88 = sext i32 %87 to i64
  %89 = getelementptr inbounds i64, ptr %85, i64 %88
  %90 = load i64, ptr %89, align 8
  %91 = load ptr, ptr %15, align 8
  %92 = load i32, ptr %13, align 4
  %93 = add nsw i32 %92, 256
  %94 = sext i32 %93 to i64
  %95 = getelementptr inbounds i64, ptr %91, i64 %94
  %96 = load i64, ptr %95, align 8
  %97 = add nsw i64 %90, %96
  %98 = load ptr, ptr %15, align 8
  %99 = load i32, ptr %14, align 4
  %100 = add nsw i32 %99, 512
  %101 = sext i32 %100 to i64
  %102 = getelementptr inbounds i64, ptr %98, i64 %101
  %103 = load i64, ptr %102, align 8
  %104 = add nsw i64 %97, %103
  %105 = ashr i64 %104, 16
  %106 = trunc i64 %105 to i8
  %107 = load ptr, ptr %16, align 8
  %108 = load i32, ptr %20, align 4
  %109 = zext i32 %108 to i64
  %110 = getelementptr inbounds i8, ptr %107, i64 %109
  store i8 %106, ptr %110, align 1
  br label %111

111:                                              ; preds = %66
  %112 = load i32, ptr %20, align 4
  %113 = add i32 %112, 1
  store i32 %113, ptr %20, align 4
  br label %62, !llvm.loop !6

114:                                              ; preds = %62
  br label %31, !llvm.loop !7

115:                                              ; preds = %31
  ret void
}