; Function Attrs: nofree norecurse nosync nounwind memory(readwrite, inaccessiblemem: none) uwtable
define internal void @rgb_gray_convert(ptr nocapture noundef readonly %0, ptr nocapture noundef readonly %1, i32 noundef %2, ptr nocapture noundef readonly %3, i32 noundef %4) #2 {
  %6 = getelementptr inbounds i8, ptr %0, i64 616
  %7 = load ptr, ptr %6, align 8
  %8 = getelementptr inbounds i8, ptr %7, i64 64
  %9 = load ptr, ptr %8, align 8
  %10 = getelementptr inbounds i8, ptr %0, i64 136
  %11 = load i32, ptr %10, align 8
  %12 = icmp sgt i32 %4, 0
  br i1 %12, label %.lr.ph35, label %._crit_edge

.lr.ph35:                                         ; preds = %5
  %13 = getelementptr inbounds i8, ptr %1, i64 8
  %14 = getelementptr inbounds i8, ptr %1, i64 16
  %.not = icmp eq i32 %11, 0
  br i1 %.not, label %._crit_edge, label %.lr.ph.us.preheader

.lr.ph.us.preheader:                              ; preds = %.lr.ph35
  %wide.trip.count = zext i32 %11 to i64
  br label %.lr.ph.us

.lr.ph.us:                                        ; preds = %.lr.ph.us.preheader, %..loopexit_crit_edge.us
  %.in = phi i32 [ %15, %..loopexit_crit_edge.us ], [ %4, %.lr.ph.us.preheader ]
  %.034.us = phi i32 [ %26, %..loopexit_crit_edge.us ], [ %2, %.lr.ph.us.preheader ]
  %.02933.us = phi ptr [ %51, %..loopexit_crit_edge.us ], [ %3, %.lr.ph.us.preheader ]
  %15 = add nsw i32 %.in, -1
  %16 = load ptr, ptr %1, align 8
  %17 = zext i32 %.034.us to i64
  %18 = getelementptr inbounds ptr, ptr %16, i64 %17
  %19 = load ptr, ptr %18, align 8
  %20 = load ptr, ptr %13, align 8
  %21 = getelementptr inbounds ptr, ptr %20, i64 %17
  %22 = load ptr, ptr %21, align 8
  %23 = load ptr, ptr %14, align 8
  %24 = getelementptr inbounds ptr, ptr %23, i64 %17
  %25 = load ptr, ptr %24, align 8
  %26 = add i32 %.034.us, 1
  %27 = load ptr, ptr %.02933.us, align 8
  br label %28

28:                                               ; preds = %.lr.ph.us, %28
  %indvars.iv = phi i64 [ 0, %.lr.ph.us ], [ %indvars.iv.next, %28 ]
  %29 = getelementptr inbounds i8, ptr %19, i64 %indvars.iv
  %30 = load i8, ptr %29, align 1
  %31 = getelementptr inbounds i8, ptr %22, i64 %indvars.iv
  %32 = load i8, ptr %31, align 1
  %33 = zext i8 %32 to i64
  %34 = getelementptr inbounds i8, ptr %25, i64 %indvars.iv
  %35 = load i8, ptr %34, align 1
  %36 = zext i8 %35 to i64
  %37 = zext i8 %30 to i64
  %38 = getelementptr inbounds i64, ptr %9, i64 %37
  %39 = load i64, ptr %38, align 8
  %40 = or disjoint i64 %33, 256
  %41 = getelementptr inbounds i64, ptr %9, i64 %40
  %42 = load i64, ptr %41, align 8
  %43 = add nsw i64 %42, %39
  %44 = or disjoint i64 %36, 512
  %45 = getelementptr inbounds i64, ptr %9, i64 %44
  %46 = load i64, ptr %45, align 8
  %47 = add nsw i64 %43, %46
  %48 = lshr i64 %47, 16
  %49 = trunc i64 %48 to i8
  %50 = getelementptr inbounds i8, ptr %27, i64 %indvars.iv
  store i8 %49, ptr %50, align 1
  %indvars.iv.next = add nuw nsw i64 %indvars.iv, 1
  %exitcond.not = icmp eq i64 %indvars.iv.next, %wide.trip.count
  br i1 %exitcond.not, label %..loopexit_crit_edge.us, label %28, !llvm.loop !7

..loopexit_crit_edge.us:                          ; preds = %28
  %51 = getelementptr inbounds i8, ptr %.02933.us, i64 8
  %52 = icmp sgt i32 %.in, 1
  br i1 %52, label %.lr.ph.us, label %._crit_edge, !llvm.loop !8

._crit_edge:                                      ; preds = %..loopexit_crit_edge.us, %.lr.ph35, %5
  ret void
}